; Function Attrs: nounwind uwtable
define dso_local range(i32 -2147483648, 1) i32 @fdt_del_mem_rsv(ptr noundef %0, i32 noundef %1) local_unnamed_addr #0 {
  %3 = getelementptr inbounds nuw i8, ptr %0, i64 16
  %4 = load i8, ptr %3, align 1
  %5 = zext i8 %4 to i64
  %6 = shl nuw nsw i64 %5, 24
  %7 = getelementptr inbounds nuw i8, ptr %0, i64 17
  %8 = load i8, ptr %7, align 1
  %9 = zext i8 %8 to i64
  %10 = shl nuw nsw i64 %9, 16
  %11 = or disjoint i64 %10, %6
  %12 = getelementptr inbounds nuw i8, ptr %0, i64 18
  %13 = load i8, ptr %12, align 1
  %14 = zext i8 %13 to i64
  %15 = shl nuw nsw i64 %14, 8
  %16 = or disjoint i64 %11, %15
  %17 = getelementptr inbounds nuw i8, ptr %0, i64 19
  %18 = load i8, ptr %17, align 1
  %19 = zext i8 %18 to i64
  %20 = or disjoint i64 %16, %19
  %21 = getelementptr inbounds nuw i8, ptr %0, i64 %20
  %22 = sext i32 %1 to i64
  %23 = getelementptr inbounds %struct.fdt_reserve_entry, ptr %21, i64 %22
  %24 = tail call i32 @fdt_ro_probe_(ptr noundef %0) #9
  %25 = icmp sgt i32 %24, -1
  br i1 %25, label %26, label %fdt_rw_probe_.exit.thread

26:                                               ; preds = %2
  %27 = getelementptr inbounds nuw i8, ptr %0, i64 20
  %28 = load i8, ptr %27, align 1
  %29 = zext i8 %28 to i32
  %30 = shl nuw i32 %29, 24
  %31 = getelementptr inbounds nuw i8, ptr %0, i64 21
  %32 = load i8, ptr %31, align 1
  %33 = zext i8 %32 to i32
  %34 = shl nuw nsw i32 %33, 16
  %35 = or disjoint i32 %34, %30
  %36 = getelementptr inbounds nuw i8, ptr %0, i64 22
  %37 = load i8, ptr %36, align 1
  %38 = zext i8 %37 to i32
  %39 = shl nuw nsw i32 %38, 8
  %40 = or disjoint i32 %35, %39
  %41 = getelementptr inbounds nuw i8, ptr %0, i64 23
  %42 = load i8, ptr %41, align 1
  %43 = zext i8 %42 to i32
  %44 = or disjoint i32 %40, %43
  %45 = icmp ult i32 %44, 17
  br i1 %45, label %fdt_rw_probe_.exit.thread, label %46

46:                                               ; preds = %26
  %47 = getelementptr inbounds nuw i8, ptr %0, i64 36
  %48 = load i8, ptr %47, align 1
  %49 = zext i8 %48 to i32
  %50 = shl nuw i32 %49, 24
  %51 = getelementptr inbounds nuw i8, ptr %0, i64 37
  %52 = load i8, ptr %51, align 1
  %53 = zext i8 %52 to i32
  %54 = shl nuw nsw i32 %53, 16
  %55 = or disjoint i32 %54, %50
  %56 = getelementptr inbounds nuw i8, ptr %0, i64 38
  %57 = load i8, ptr %56, align 1
  %58 = zext i8 %57 to i32
  %59 = shl nuw nsw i32 %58, 8
  %60 = or disjoint i32 %55, %59
  %61 = getelementptr inbounds nuw i8, ptr %0, i64 39
  %62 = load i8, ptr %61, align 1
  %63 = zext i8 %62 to i32
  %64 = or disjoint i32 %60, %63
  %65 = tail call fastcc i32 @fdt_blocks_misordered_(ptr noundef nonnull %0, i32 noundef 16, i32 noundef %64)
  %.not.i = icmp eq i32 %65, 0
  br i1 %.not.i, label %66, label %fdt_rw_probe_.exit.thread

66:                                               ; preds = %46
  %.not9.i = icmp eq i32 %44, 17
  br i1 %.not9.i, label %fdt_rw_probe_.exit, label %67

67:                                               ; preds = %66
  store i32 285212672, ptr %27, align 4
  br label %fdt_rw_probe_.exit

fdt_rw_probe_.exit:                               ; preds = %67, %66
  %68 = tail call i32 @fdt_num_mem_rsv(ptr noundef nonnull %0) #9
  %.not10 = icmp slt i32 %1, %68
  br i1 %.not10, label %69, label %fdt_rw_probe_.exit.thread

69:                                               ; preds = %fdt_rw_probe_.exit
  %70 = tail call fastcc i32 @fdt_splice_mem_rsv_(ptr noundef nonnull %0, ptr noundef nonnull %23, i32 noundef 1, i32 noundef 0)
  br label %fdt_rw_probe_.exit.thread

fdt_rw_probe_.exit.thread:                        ; preds = %46, %26, %2, %fdt_rw_probe_.exit, %69
  %.1 = phi i32 [ %70, %69 ], [ -1, %fdt_rw_probe_.exit ], [ -12, %46 ], [ -10, %26 ], [ %24, %2 ]
  ret i32 %.1
}